; Function Attrs: inlinehint nounwind uwtable
define internal range(i32 -5, -2147483648) i32 @SimulateWantWriteIOSendCb(ptr readnone captures(none) %0, ptr noundef %1, i32 noundef %2, ptr noundef readonly captures(none) %3) #8 {
  %.b = load i1, ptr @SimulateWantWriteIOSendCb.wantWriteFlag, align 4
  br i1 %.b, label %5, label %16

5:                                                ; preds = %4
  %6 = load i32, ptr %3, align 4, !tbaa !4
  store i1 false, ptr @SimulateWantWriteIOSendCb.wantWriteFlag, align 4
  %7 = tail call i32 @wolfIO_Send(i32 noundef %6, ptr noundef %1, i32 noundef %2, i32 noundef 0) #21
  %8 = icmp slt i32 %7, 0
  br i1 %8, label %9, label %17

9:                                                ; preds = %5
  %10 = tail call ptr @__errno_location() #28
  %11 = load i32, ptr %10, align 4, !tbaa !4
  switch i32 %11, label %15 [
    i32 11, label %17
    i32 104, label %12
    i32 4, label %13
    i32 32, label %14
  ]

12:                                               ; preds = %9
  br label %17

13:                                               ; preds = %9
  br label %17

14:                                               ; preds = %9
  br label %17

15:                                               ; preds = %9
  br label %17

16:                                               ; preds = %4
  store i1 true, ptr @SimulateWantWriteIOSendCb.wantWriteFlag, align 4
  br label %17

17:                                               ; preds = %9, %15, %14, %13, %12, %5, %16
  %.2 = phi i32 [ -2, %16 ], [ -3, %12 ], [ -4, %13 ], [ -5, %14 ], [ -1, %15 ], [ -2, %9 ], [ %7, %5 ]
  ret i32 %.2
}